; Function Attrs: mustprogress nounwind uwtable
define dso_local void @_ZN5clang15ODRDiagsEmitter32getOwningModuleNameForDiagnosticB5cxx11EPKNS_4DeclE(ptr dead_on_unwind noalias writable sret(%"class.std::__cxx11::basic_string") align 8 %0, ptr noundef %1) local_unnamed_addr #0 align 2 {
  %3 = getelementptr inbounds nuw i8, ptr %1, i64 28
  %4 = load i32, ptr %3, align 4
  %5 = and i32 %4, 32768
  %.not.i = icmp eq i32 %5, 0
  br i1 %.not.i, label %_ZNK5clang4Decl23getImportedOwningModuleEv.exit.thread, label %6

6:                                                ; preds = %2
  %7 = getelementptr inbounds nuw i8, ptr %1, i64 8
  %.0.copyload.i.i.i.i.i.i = load i64, ptr %7, align 8
  %8 = and i64 %.0.copyload.i.i.i.i.i.i, 7
  %.not2.i = icmp eq i64 %8, 0
  br i1 %.not2.i, label %_ZNK5clang4Decl23getImportedOwningModuleEv.exit.thread, label %_ZNK5clang4Decl23getImportedOwningModuleEv.exit

_ZNK5clang4Decl23getImportedOwningModuleEv.exit:  ; preds = %6
  %9 = tail call noundef ptr @_ZNK5clang4Decl19getOwningModuleSlowEv(ptr noundef nonnull align 8 dereferenceable(33) %1) #17
  %.not = icmp eq ptr %9, null
  br i1 %.not, label %_ZNK5clang4Decl23getImportedOwningModuleEv.exit.thread, label %10

10:                                               ; preds = %_ZNK5clang4Decl23getImportedOwningModuleEv.exit
  tail call void @_ZNK5clang6Module17getFullModuleNameB5cxx11Eb(ptr dead_on_unwind writable sret(%"class.std::__cxx11::basic_string") align 8 %0, ptr noundef nonnull align 8 dereferenceable(2392) %9, i1 noundef zeroext false) #17
  br label %11

_ZNK5clang4Decl23getImportedOwningModuleEv.exit.thread: ; preds = %2, %6, %_ZNK5clang4Decl23getImportedOwningModuleEv.exit
  tail call void @_ZNSt7__cxx1112basic_stringIcSt11char_traitsIcESaIcEEC1Ev(ptr noundef nonnull align 8 dereferenceable(32) %0) #17
  br label %11

11:                                               ; preds = %_ZNK5clang4Decl23getImportedOwningModuleEv.exit.thread, %10
  ret void
}